
bomb_hard:     file format elf64-x86-64


Disassembly of section .init:

0000000000401000 <_init>:
  401000:	f3 0f 1e fa          	endbr64
  401004:	48 83 ec 08          	sub    $0x8,%rsp
  401008:	48 8b 05 d1 2f 00 00 	mov    0x2fd1(%rip),%rax        # 403fe0 <__gmon_start__@Base>
  40100f:	48 85 c0             	test   %rax,%rax
  401012:	74 02                	je     401016 <_init+0x16>
  401014:	ff d0                	call   *%rax
  401016:	48 83 c4 08          	add    $0x8,%rsp
  40101a:	c3                   	ret

Disassembly of section .plt:

0000000000401020 <printf@plt-0x10>:
  401020:	ff 35 ca 2f 00 00    	push   0x2fca(%rip)        # 403ff0 <_GLOBAL_OFFSET_TABLE_+0x8>
  401026:	ff 25 cc 2f 00 00    	jmp    *0x2fcc(%rip)        # 403ff8 <_GLOBAL_OFFSET_TABLE_+0x10>
  40102c:	0f 1f 40 00          	nopl   0x0(%rax)

0000000000401030 <printf@plt>:
  401030:	ff 25 ca 2f 00 00    	jmp    *0x2fca(%rip)        # 404000 <printf@GLIBC_2.2.5>
  401036:	68 00 00 00 00       	push   $0x0
  40103b:	e9 e0 ff ff ff       	jmp    401020 <_init+0x20>

0000000000401040 <strcspn@plt>:
  401040:	ff 25 c2 2f 00 00    	jmp    *0x2fc2(%rip)        # 404008 <strcspn@GLIBC_2.2.5>
  401046:	68 01 00 00 00       	push   $0x1
  40104b:	e9 d0 ff ff ff       	jmp    401020 <_init+0x20>

0000000000401050 <fgets@plt>:
  401050:	ff 25 ba 2f 00 00    	jmp    *0x2fba(%rip)        # 404010 <fgets@GLIBC_2.2.5>
  401056:	68 02 00 00 00       	push   $0x2
  40105b:	e9 c0 ff ff ff       	jmp    401020 <_init+0x20>

0000000000401060 <strcmp@plt>:
  401060:	ff 25 b2 2f 00 00    	jmp    *0x2fb2(%rip)        # 404018 <strcmp@GLIBC_2.2.5>
  401066:	68 03 00 00 00       	push   $0x3
  40106b:	e9 b0 ff ff ff       	jmp    401020 <_init+0x20>

0000000000401070 <__isoc99_sscanf@plt>:
  401070:	ff 25 aa 2f 00 00    	jmp    *0x2faa(%rip)        # 404020 <__isoc99_sscanf@GLIBC_2.7>
  401076:	68 04 00 00 00       	push   $0x4
  40107b:	e9 a0 ff ff ff       	jmp    401020 <_init+0x20>

0000000000401080 <exit@plt>:
  401080:	ff 25 a2 2f 00 00    	jmp    *0x2fa2(%rip)        # 404028 <exit@GLIBC_2.2.5>
  401086:	68 05 00 00 00       	push   $0x5
  40108b:	e9 90 ff ff ff       	jmp    401020 <_init+0x20>

Disassembly of section .text:

0000000000401090 <_start>:
  401090:	f3 0f 1e fa          	endbr64
  401094:	31 ed                	xor    %ebp,%ebp
  401096:	49 89 d1             	mov    %rdx,%r9
  401099:	5e                   	pop    %rsi
  40109a:	48 89 e2             	mov    %rsp,%rdx
  40109d:	48 83 e4 f0          	and    $0xfffffffffffffff0,%rsp
  4010a1:	50                   	push   %rax
  4010a2:	54                   	push   %rsp
  4010a3:	45 31 c0             	xor    %r8d,%r8d
  4010a6:	31 c9                	xor    %ecx,%ecx
  4010a8:	48 c7 c7 90 15 40 00 	mov    $0x401590,%rdi
  4010af:	ff 15 23 2f 00 00    	call   *0x2f23(%rip)        # 403fd8 <__libc_start_main@GLIBC_2.34>
  4010b5:	f4                   	hlt
  4010b6:	66 2e 0f 1f 84 00 00 	cs nopw 0x0(%rax,%rax,1)
  4010bd:	00 00 00 

00000000004010c0 <_dl_relocate_static_pie>:
  4010c0:	f3 0f 1e fa          	endbr64
  4010c4:	c3                   	ret
  4010c5:	66 2e 0f 1f 84 00 00 	cs nopw 0x0(%rax,%rax,1)
  4010cc:	00 00 00 
  4010cf:	90                   	nop

00000000004010d0 <deregister_tm_clones>:
  4010d0:	b8 40 40 40 00       	mov    $0x404040,%eax
  4010d5:	48 3d 40 40 40 00    	cmp    $0x404040,%rax
  4010db:	74 13                	je     4010f0 <deregister_tm_clones+0x20>
  4010dd:	b8 00 00 00 00       	mov    $0x0,%eax
  4010e2:	48 85 c0             	test   %rax,%rax
  4010e5:	74 09                	je     4010f0 <deregister_tm_clones+0x20>
  4010e7:	bf 40 40 40 00       	mov    $0x404040,%edi
  4010ec:	ff e0                	jmp    *%rax
  4010ee:	66 90                	xchg   %ax,%ax
  4010f0:	c3                   	ret
  4010f1:	66 66 2e 0f 1f 84 00 	data16 cs nopw 0x0(%rax,%rax,1)
  4010f8:	00 00 00 00 
  4010fc:	0f 1f 40 00          	nopl   0x0(%rax)

0000000000401100 <register_tm_clones>:
  401100:	be 40 40 40 00       	mov    $0x404040,%esi
  401105:	48 81 ee 40 40 40 00 	sub    $0x404040,%rsi
  40110c:	48 89 f0             	mov    %rsi,%rax
  40110f:	48 c1 ee 3f          	shr    $0x3f,%rsi
  401113:	48 c1 f8 03          	sar    $0x3,%rax
  401117:	48 01 c6             	add    %rax,%rsi
  40111a:	48 d1 fe             	sar    $1,%rsi
  40111d:	74 11                	je     401130 <register_tm_clones+0x30>
  40111f:	b8 00 00 00 00       	mov    $0x0,%eax
  401124:	48 85 c0             	test   %rax,%rax
  401127:	74 07                	je     401130 <register_tm_clones+0x30>
  401129:	bf 40 40 40 00       	mov    $0x404040,%edi
  40112e:	ff e0                	jmp    *%rax
  401130:	c3                   	ret
  401131:	66 66 2e 0f 1f 84 00 	data16 cs nopw 0x0(%rax,%rax,1)
  401138:	00 00 00 00 
  40113c:	0f 1f 40 00          	nopl   0x0(%rax)

0000000000401140 <__do_global_dtors_aux>:
  401140:	f3 0f 1e fa          	endbr64
  401144:	80 3d fd 2e 00 00 00 	cmpb   $0x0,0x2efd(%rip)        # 404048 <completed.0>
  40114b:	75 13                	jne    401160 <__do_global_dtors_aux+0x20>
  40114d:	55                   	push   %rbp
  40114e:	48 89 e5             	mov    %rsp,%rbp
  401151:	e8 7a ff ff ff       	call   4010d0 <deregister_tm_clones>
  401156:	c6 05 eb 2e 00 00 01 	movb   $0x1,0x2eeb(%rip)        # 404048 <completed.0>
  40115d:	5d                   	pop    %rbp
  40115e:	c3                   	ret
  40115f:	90                   	nop
  401160:	c3                   	ret
  401161:	66 66 2e 0f 1f 84 00 	data16 cs nopw 0x0(%rax,%rax,1)
  401168:	00 00 00 00 
  40116c:	0f 1f 40 00          	nopl   0x0(%rax)

0000000000401170 <frame_dummy>:
  401170:	f3 0f 1e fa          	endbr64
  401174:	eb 8a                	jmp    401100 <register_tm_clones>
  401176:	66 2e 0f 1f 84 00 00 	cs nopw 0x0(%rax,%rax,1)
  40117d:	00 00 00 

0000000000401180 <explode_bomb>:
  401180:	55                   	push   %rbp
  401181:	48 89 e5             	mov    %rsp,%rbp
  401184:	48 bf 38 20 40 00 00 	movabs $0x402038,%rdi
  40118b:	00 00 00 
  40118e:	b0 00                	mov    $0x0,%al
  401190:	e8 9b fe ff ff       	call   401030 <printf@plt>
  401195:	48 bf 4a 20 40 00 00 	movabs $0x40204a,%rdi
  40119c:	00 00 00 
  40119f:	b0 00                	mov    $0x0,%al
  4011a1:	e8 8a fe ff ff       	call   401030 <printf@plt>
  4011a6:	bf 01 00 00 00       	mov    $0x1,%edi
  4011ab:	e8 d0 fe ff ff       	call   401080 <exit@plt>

00000000004011b0 <phase_1>:
  4011b0:	55                   	push   %rbp
  4011b1:	48 89 e5             	mov    %rsp,%rbp
  4011b4:	48 83 ec 10          	sub    $0x10,%rsp
  4011b8:	48 89 7d f8          	mov    %rdi,-0x8(%rbp)
  4011bc:	48 8b 7d f8          	mov    -0x8(%rbp),%rdi
  4011c0:	be 69 20 40 00       	mov    $0x402069,%esi
  4011c5:	e8 96 fe ff ff       	call   401060 <strcmp@plt>
  4011ca:	83 f8 00             	cmp    $0x0,%eax
  4011cd:	0f 84 05 00 00 00    	je     4011d8 <phase_1+0x28>
  4011d3:	e8 a8 ff ff ff       	call   401180 <explode_bomb>
  4011d8:	48 bf 95 20 40 00 00 	movabs $0x402095,%rdi
  4011df:	00 00 00 
  4011e2:	b0 00                	mov    $0x0,%al
  4011e4:	e8 47 fe ff ff       	call   401030 <printf@plt>
  4011e9:	48 83 c4 10          	add    $0x10,%rsp
  4011ed:	5d                   	pop    %rbp
  4011ee:	c3                   	ret
  4011ef:	90                   	nop

00000000004011f0 <phase_2>:
  4011f0:	55                   	push   %rbp
  4011f1:	48 89 e5             	mov    %rsp,%rbp
  4011f4:	48 83 ec 40          	sub    $0x40,%rsp
  4011f8:	48 89 7d f8          	mov    %rdi,-0x8(%rbp)
  4011fc:	48 8b 7d f8          	mov    -0x8(%rbp),%rdi
  401200:	48 8d 55 e0          	lea    -0x20(%rbp),%rdx
  401204:	48 8d 4d e0          	lea    -0x20(%rbp),%rcx
  401208:	48 83 c1 04          	add    $0x4,%rcx
  40120c:	4c 8d 45 e0          	lea    -0x20(%rbp),%r8
  401210:	49 83 c0 08          	add    $0x8,%r8
  401214:	4c 8d 4d e0          	lea    -0x20(%rbp),%r9
  401218:	49 83 c1 0c          	add    $0xc,%r9
  40121c:	4c 8d 55 e0          	lea    -0x20(%rbp),%r10
  401220:	49 83 c2 10          	add    $0x10,%r10
  401224:	48 8d 45 e0          	lea    -0x20(%rbp),%rax
  401228:	48 83 c0 14          	add    $0x14,%rax
  40122c:	48 be a6 20 40 00 00 	movabs $0x4020a6,%rsi
  401233:	00 00 00 
  401236:	4c 89 14 24          	mov    %r10,(%rsp)
  40123a:	48 89 44 24 08       	mov    %rax,0x8(%rsp)
  40123f:	b0 00                	mov    $0x0,%al
  401241:	e8 2a fe ff ff       	call   401070 <__isoc99_sscanf@plt>
  401246:	83 f8 06             	cmp    $0x6,%eax
  401249:	0f 84 05 00 00 00    	je     401254 <phase_2+0x64>
  40124f:	e8 2c ff ff ff       	call   401180 <explode_bomb>
  401254:	83 7d e0 01          	cmpl   $0x1,-0x20(%rbp)
  401258:	0f 84 05 00 00 00    	je     401263 <phase_2+0x73>
  40125e:	e8 1d ff ff ff       	call   401180 <explode_bomb>
  401263:	c7 45 dc 01 00 00 00 	movl   $0x1,-0x24(%rbp)
  40126a:	83 7d dc 06          	cmpl   $0x6,-0x24(%rbp)
  40126e:	0f 8d 37 00 00 00    	jge    4012ab <phase_2+0xbb>
  401274:	48 63 45 dc          	movslq -0x24(%rbp),%rax
  401278:	8b 44 85 e0          	mov    -0x20(%rbp,%rax,4),%eax
  40127c:	8b 4d dc             	mov    -0x24(%rbp),%ecx
  40127f:	83 e9 01             	sub    $0x1,%ecx
  401282:	48 63 c9             	movslq %ecx,%rcx
  401285:	8b 4c 8d e0          	mov    -0x20(%rbp,%rcx,4),%ecx
  401289:	d1 e1                	shl    $1,%ecx
  40128b:	39 c8                	cmp    %ecx,%eax
  40128d:	0f 84 05 00 00 00    	je     401298 <phase_2+0xa8>
  401293:	e8 e8 fe ff ff       	call   401180 <explode_bomb>
  401298:	e9 00 00 00 00       	jmp    40129d <phase_2+0xad>
  40129d:	8b 45 dc             	mov    -0x24(%rbp),%eax
  4012a0:	83 c0 01             	add    $0x1,%eax
  4012a3:	89 45 dc             	mov    %eax,-0x24(%rbp)
  4012a6:	e9 bf ff ff ff       	jmp    40126a <phase_2+0x7a>
  4012ab:	48 bf b8 20 40 00 00 	movabs $0x4020b8,%rdi
  4012b2:	00 00 00 
  4012b5:	b0 00                	mov    $0x0,%al
  4012b7:	e8 74 fd ff ff       	call   401030 <printf@plt>
  4012bc:	48 83 c4 40          	add    $0x40,%rsp
  4012c0:	5d                   	pop    %rbp
  4012c1:	c3                   	ret
  4012c2:	66 66 66 66 66 2e 0f 	data16 data16 data16 data16 cs nopw 0x0(%rax,%rax,1)
  4012c9:	1f 84 00 00 00 00 00 

00000000004012d0 <phase_3>:
  4012d0:	55                   	push   %rbp
  4012d1:	48 89 e5             	mov    %rsp,%rbp
  4012d4:	48 83 ec 20          	sub    $0x20,%rsp
  4012d8:	48 89 7d f8          	mov    %rdi,-0x8(%rbp)
  4012dc:	48 8b 7d f8          	mov    -0x8(%rbp),%rdi
  4012e0:	48 be b2 20 40 00 00 	movabs $0x4020b2,%rsi
  4012e7:	00 00 00 
  4012ea:	48 8d 55 f4          	lea    -0xc(%rbp),%rdx
  4012ee:	48 8d 4d f0          	lea    -0x10(%rbp),%rcx
  4012f2:	b0 00                	mov    $0x0,%al
  4012f4:	e8 77 fd ff ff       	call   401070 <__isoc99_sscanf@plt>
  4012f9:	83 f8 02             	cmp    $0x2,%eax
  4012fc:	0f 84 05 00 00 00    	je     401307 <phase_3+0x37>
  401302:	e8 79 fe ff ff       	call   401180 <explode_bomb>
  401307:	8b 45 f4             	mov    -0xc(%rbp),%eax
  40130a:	48 89 45 e8          	mov    %rax,-0x18(%rbp)
  40130e:	48 83 e8 05          	sub    $0x5,%rax
  401312:	0f 87 95 00 00 00    	ja     4013ad <phase_3+0xdd>
  401318:	48 8b 45 e8          	mov    -0x18(%rbp),%rax
  40131c:	48 8b 04 c5 08 20 40 	mov    0x402008(,%rax,8),%rax
  401323:	00 
  401324:	ff e0                	jmp    *%rax
  401326:	81 7d f0 c4 01 00 00 	cmpl   $0x1c4,-0x10(%rbp)
  40132d:	0f 84 05 00 00 00    	je     401338 <phase_3+0x68>
  401333:	e8 48 fe ff ff       	call   401180 <explode_bomb>
  401338:	e9 75 00 00 00       	jmp    4013b2 <phase_3+0xe2>
  40133d:	83 7d f0 6b          	cmpl   $0x6b,-0x10(%rbp)
  401341:	0f 84 05 00 00 00    	je     40134c <phase_3+0x7c>
  401347:	e8 34 fe ff ff       	call   401180 <explode_bomb>
  40134c:	e9 61 00 00 00       	jmp    4013b2 <phase_3+0xe2>
  401351:	81 7d f0 85 03 00 00 	cmpl   $0x385,-0x10(%rbp)
  401358:	0f 84 05 00 00 00    	je     401363 <phase_3+0x93>
  40135e:	e8 1d fe ff ff       	call   401180 <explode_bomb>
  401363:	e9 4a 00 00 00       	jmp    4013b2 <phase_3+0xe2>
  401368:	81 7d f0 d4 00 00 00 	cmpl   $0xd4,-0x10(%rbp)
  40136f:	0f 84 05 00 00 00    	je     40137a <phase_3+0xaa>
  401375:	e8 06 fe ff ff       	call   401180 <explode_bomb>
  40137a:	e9 33 00 00 00       	jmp    4013b2 <phase_3+0xe2>
  40137f:	81 7d f0 c9 02 00 00 	cmpl   $0x2c9,-0x10(%rbp)
  401386:	0f 84 05 00 00 00    	je     401391 <phase_3+0xc1>
  40138c:	e8 ef fd ff ff       	call   401180 <explode_bomb>
  401391:	e9 1c 00 00 00       	jmp    4013b2 <phase_3+0xe2>
  401396:	81 7d f0 78 03 00 00 	cmpl   $0x378,-0x10(%rbp)
  40139d:	0f 84 05 00 00 00    	je     4013a8 <phase_3+0xd8>
  4013a3:	e8 d8 fd ff ff       	call   401180 <explode_bomb>
  4013a8:	e9 05 00 00 00       	jmp    4013b2 <phase_3+0xe2>
  4013ad:	e8 ce fd ff ff       	call   401180 <explode_bomb>
  4013b2:	48 bf c9 20 40 00 00 	movabs $0x4020c9,%rdi
  4013b9:	00 00 00 
  4013bc:	b0 00                	mov    $0x0,%al
  4013be:	e8 6d fc ff ff       	call   401030 <printf@plt>
  4013c3:	48 83 c4 20          	add    $0x20,%rsp
  4013c7:	5d                   	pop    %rbp
  4013c8:	c3                   	ret
  4013c9:	0f 1f 80 00 00 00 00 	nopl   0x0(%rax)

00000000004013d0 <fib>:
  4013d0:	55                   	push   %rbp
  4013d1:	48 89 e5             	mov    %rsp,%rbp
  4013d4:	48 83 ec 10          	sub    $0x10,%rsp
  4013d8:	89 7d f8             	mov    %edi,-0x8(%rbp)
  4013db:	83 7d f8 00          	cmpl   $0x0,-0x8(%rbp)
  4013df:	0f 8f 0c 00 00 00    	jg     4013f1 <fib+0x21>
  4013e5:	c7 45 fc 00 00 00 00 	movl   $0x0,-0x4(%rbp)
  4013ec:	e9 39 00 00 00       	jmp    40142a <fib+0x5a>
  4013f1:	83 7d f8 01          	cmpl   $0x1,-0x8(%rbp)
  4013f5:	0f 85 0c 00 00 00    	jne    401407 <fib+0x37>
  4013fb:	c7 45 fc 01 00 00 00 	movl   $0x1,-0x4(%rbp)
  401402:	e9 23 00 00 00       	jmp    40142a <fib+0x5a>
  401407:	8b 7d f8             	mov    -0x8(%rbp),%edi
  40140a:	83 ef 01             	sub    $0x1,%edi
  40140d:	e8 be ff ff ff       	call   4013d0 <fib>
  401412:	89 45 f4             	mov    %eax,-0xc(%rbp)
  401415:	8b 7d f8             	mov    -0x8(%rbp),%edi
  401418:	83 ef 02             	sub    $0x2,%edi
  40141b:	e8 b0 ff ff ff       	call   4013d0 <fib>
  401420:	89 c1                	mov    %eax,%ecx
  401422:	8b 45 f4             	mov    -0xc(%rbp),%eax
  401425:	01 c8                	add    %ecx,%eax
  401427:	89 45 fc             	mov    %eax,-0x4(%rbp)
  40142a:	8b 45 fc             	mov    -0x4(%rbp),%eax
  40142d:	48 83 c4 10          	add    $0x10,%rsp
  401431:	5d                   	pop    %rbp
  401432:	c3                   	ret
  401433:	66 66 66 66 2e 0f 1f 	data16 data16 data16 cs nopw 0x0(%rax,%rax,1)
  40143a:	84 00 00 00 00 00 

0000000000401440 <phase_4>:
  401440:	55                   	push   %rbp
  401441:	48 89 e5             	mov    %rsp,%rbp
  401444:	48 83 ec 30          	sub    $0x30,%rsp
  401448:	48 89 7d f8          	mov    %rdi,-0x8(%rbp)
  40144c:	c6 45 e0 00          	movb   $0x0,-0x20(%rbp)
  401450:	48 8b 7d f8          	mov    -0x8(%rbp),%rdi
  401454:	48 8d 4d e0          	lea    -0x20(%rbp),%rcx
  401458:	48 be da 20 40 00 00 	movabs $0x4020da,%rsi
  40145f:	00 00 00 
  401462:	48 8d 55 f4          	lea    -0xc(%rbp),%rdx
  401466:	b0 00                	mov    $0x0,%al
  401468:	e8 03 fc ff ff       	call   401070 <__isoc99_sscanf@plt>
  40146d:	89 45 dc             	mov    %eax,-0x24(%rbp)
  401470:	83 7d dc 01          	cmpl   $0x1,-0x24(%rbp)
  401474:	0f 8d 05 00 00 00    	jge    40147f <phase_4+0x3f>
  40147a:	e8 01 fd ff ff       	call   401180 <explode_bomb>
  40147f:	83 7d f4 00          	cmpl   $0x0,-0xc(%rbp)
  401483:	0f 8c 0a 00 00 00    	jl     401493 <phase_4+0x53>
  401489:	83 7d f4 0c          	cmpl   $0xc,-0xc(%rbp)
  40148d:	0f 8e 05 00 00 00    	jle    401498 <phase_4+0x58>
  401493:	e8 e8 fc ff ff       	call   401180 <explode_bomb>
  401498:	8b 7d f4             	mov    -0xc(%rbp),%edi
  40149b:	e8 30 ff ff ff       	call   4013d0 <fib>
  4014a0:	83 f8 37             	cmp    $0x37,%eax
  4014a3:	0f 84 05 00 00 00    	je     4014ae <phase_4+0x6e>
  4014a9:	e8 d2 fc ff ff       	call   401180 <explode_bomb>
  4014ae:	48 bf e2 20 40 00 00 	movabs $0x4020e2,%rdi
  4014b5:	00 00 00 
  4014b8:	b0 00                	mov    $0x0,%al
  4014ba:	e8 71 fb ff ff       	call   401030 <printf@plt>
  4014bf:	48 8d 7d e0          	lea    -0x20(%rbp),%rdi
  4014c3:	be f3 20 40 00       	mov    $0x4020f3,%esi
  4014c8:	e8 93 fb ff ff       	call   401060 <strcmp@plt>
  4014cd:	83 f8 00             	cmp    $0x0,%eax
  4014d0:	0f 94 c0             	sete   %al
  4014d3:	24 01                	and    $0x1,%al
  4014d5:	0f b6 c0             	movzbl %al,%eax
  4014d8:	48 83 c4 30          	add    $0x30,%rsp
  4014dc:	5d                   	pop    %rbp
  4014dd:	c3                   	ret
  4014de:	66 90                	xchg   %ax,%ax

00000000004014e0 <secret_phase>:
  4014e0:	55                   	push   %rbp
  4014e1:	48 89 e5             	mov    %rsp,%rbp
  4014e4:	48 81 ec 80 00 00 00 	sub    $0x80,%rsp
  4014eb:	48 bf 00 21 40 00 00 	movabs $0x402100,%rdi
  4014f2:	00 00 00 
  4014f5:	b0 00                	mov    $0x0,%al
  4014f7:	e8 34 fb ff ff       	call   401030 <printf@plt>
  4014fc:	48 bf 20 21 40 00 00 	movabs $0x402120,%rdi
  401503:	00 00 00 
  401506:	b0 00                	mov    $0x0,%al
  401508:	e8 23 fb ff ff       	call   401030 <printf@plt>
  40150d:	48 8d 7d 90          	lea    -0x70(%rbp),%rdi
  401511:	48 8b 14 25 40 40 40 	mov    0x404040,%rdx
  401518:	00 
  401519:	be 64 00 00 00       	mov    $0x64,%esi
  40151e:	e8 2d fb ff ff       	call   401050 <fgets@plt>
  401523:	48 83 f8 00          	cmp    $0x0,%rax
  401527:	0f 85 05 00 00 00    	jne    401532 <secret_phase+0x52>
  40152d:	e8 4e fc ff ff       	call   401180 <explode_bomb>
  401532:	48 8d 7d 90          	lea    -0x70(%rbp),%rdi
  401536:	48 be b5 20 40 00 00 	movabs $0x4020b5,%rsi
  40153d:	00 00 00 
  401540:	48 8d 55 8c          	lea    -0x74(%rbp),%rdx
  401544:	b0 00                	mov    $0x0,%al
  401546:	e8 25 fb ff ff       	call   401070 <__isoc99_sscanf@plt>
  40154b:	83 f8 01             	cmp    $0x1,%eax
  40154e:	0f 84 05 00 00 00    	je     401559 <secret_phase+0x79>
  401554:	e8 27 fc ff ff       	call   401180 <explode_bomb>
  401559:	81 7d 8c 39 05 00 00 	cmpl   $0x539,-0x74(%rbp)
  401560:	0f 84 05 00 00 00    	je     40156b <secret_phase+0x8b>
  401566:	e8 15 fc ff ff       	call   401180 <explode_bomb>
  40156b:	48 bf 3a 21 40 00 00 	movabs $0x40213a,%rdi
  401572:	00 00 00 
  401575:	b0 00                	mov    $0x0,%al
  401577:	e8 b4 fa ff ff       	call   401030 <printf@plt>
  40157c:	48 81 c4 80 00 00 00 	add    $0x80,%rsp
  401583:	5d                   	pop    %rbp
  401584:	c3                   	ret
  401585:	66 66 2e 0f 1f 84 00 	data16 cs nopw 0x0(%rax,%rax,1)
  40158c:	00 00 00 00 

0000000000401590 <main>:
  401590:	55                   	push   %rbp
  401591:	48 89 e5             	mov    %rsp,%rbp
  401594:	48 81 ec 80 00 00 00 	sub    $0x80,%rsp
  40159b:	c7 45 fc 00 00 00 00 	movl   $0x0,-0x4(%rbp)
  4015a2:	c7 45 8c 00 00 00 00 	movl   $0x0,-0x74(%rbp)
  4015a9:	48 bf 74 21 40 00 00 	movabs $0x402174,%rdi
  4015b0:	00 00 00 
  4015b3:	b0 00                	mov    $0x0,%al
  4015b5:	e8 76 fa ff ff       	call   401030 <printf@plt>
  4015ba:	48 bf a4 21 40 00 00 	movabs $0x4021a4,%rdi
  4015c1:	00 00 00 
  4015c4:	b0 00                	mov    $0x0,%al
  4015c6:	e8 65 fa ff ff       	call   401030 <printf@plt>
  4015cb:	48 8d 7d 90          	lea    -0x70(%rbp),%rdi
  4015cf:	48 8b 14 25 40 40 40 	mov    0x404040,%rdx
  4015d6:	00 
  4015d7:	be 64 00 00 00       	mov    $0x64,%esi
  4015dc:	e8 6f fa ff ff       	call   401050 <fgets@plt>
  4015e1:	48 8d 7d 90          	lea    -0x70(%rbp),%rdi
  4015e5:	48 be a4 20 40 00 00 	movabs $0x4020a4,%rsi
  4015ec:	00 00 00 
  4015ef:	e8 4c fa ff ff       	call   401040 <strcspn@plt>
  4015f4:	c6 44 05 90 00       	movb   $0x0,-0x70(%rbp,%rax,1)
  4015f9:	48 8d 7d 90          	lea    -0x70(%rbp),%rdi
  4015fd:	e8 ae fb ff ff       	call   4011b0 <phase_1>
  401602:	48 bf c0 21 40 00 00 	movabs $0x4021c0,%rdi
  401609:	00 00 00 
  40160c:	b0 00                	mov    $0x0,%al
  40160e:	e8 1d fa ff ff       	call   401030 <printf@plt>
  401613:	48 8d 7d 90          	lea    -0x70(%rbp),%rdi
  401617:	48 8b 14 25 40 40 40 	mov    0x404040,%rdx
  40161e:	00 
  40161f:	be 64 00 00 00       	mov    $0x64,%esi
  401624:	e8 27 fa ff ff       	call   401050 <fgets@plt>
  401629:	48 8d 7d 90          	lea    -0x70(%rbp),%rdi
  40162d:	e8 be fb ff ff       	call   4011f0 <phase_2>
  401632:	48 bf dd 21 40 00 00 	movabs $0x4021dd,%rdi
  401639:	00 00 00 
  40163c:	b0 00                	mov    $0x0,%al
  40163e:	e8 ed f9 ff ff       	call   401030 <printf@plt>
  401643:	48 8d 7d 90          	lea    -0x70(%rbp),%rdi
  401647:	48 8b 14 25 40 40 40 	mov    0x404040,%rdx
  40164e:	00 
  40164f:	be 64 00 00 00       	mov    $0x64,%esi
  401654:	e8 f7 f9 ff ff       	call   401050 <fgets@plt>
  401659:	48 8d 7d 90          	lea    -0x70(%rbp),%rdi
  40165d:	e8 6e fc ff ff       	call   4012d0 <phase_3>
  401662:	48 bf fa 21 40 00 00 	movabs $0x4021fa,%rdi
  401669:	00 00 00 
  40166c:	b0 00                	mov    $0x0,%al
  40166e:	e8 bd f9 ff ff       	call   401030 <printf@plt>
  401673:	48 8d 7d 90          	lea    -0x70(%rbp),%rdi
  401677:	48 8b 14 25 40 40 40 	mov    0x404040,%rdx
  40167e:	00 
  40167f:	be 64 00 00 00       	mov    $0x64,%esi
  401684:	e8 c7 f9 ff ff       	call   401050 <fgets@plt>
  401689:	48 8d 7d 90          	lea    -0x70(%rbp),%rdi
  40168d:	e8 ae fd ff ff       	call   401440 <phase_4>
  401692:	89 45 8c             	mov    %eax,-0x74(%rbp)
  401695:	83 7d 8c 00          	cmpl   $0x0,-0x74(%rbp)
  401699:	0f 84 0a 00 00 00    	je     4016a9 <main+0x119>
  40169f:	e8 3c fe ff ff       	call   4014e0 <secret_phase>
  4016a4:	e9 11 00 00 00       	jmp    4016ba <main+0x12a>
  4016a9:	48 bf 2c 22 40 00 00 	movabs $0x40222c,%rdi
  4016b0:	00 00 00 
  4016b3:	b0 00                	mov    $0x0,%al
  4016b5:	e8 76 f9 ff ff       	call   401030 <printf@plt>
  4016ba:	31 c0                	xor    %eax,%eax
  4016bc:	48 81 c4 80 00 00 00 	add    $0x80,%rsp
  4016c3:	5d                   	pop    %rbp
  4016c4:	c3                   	ret

Disassembly of section .fini:

00000000004016c8 <_fini>:
  4016c8:	f3 0f 1e fa          	endbr64
  4016cc:	48 83 ec 08          	sub    $0x8,%rsp
  4016d0:	48 83 c4 08          	add    $0x8,%rsp
  4016d4:	c3                   	ret
